target datalayout = "e-m:e-p270:32:32-p271:32:32-p272:64:64-i64:64-i128:128-f80:128-n8:16:32:64-S128"
target triple = "x86_64-pc-linux-gnu"

%struct.anon = type { i64, i64, i32, i32 }
%struct.rb_imemo_tmpbuf_struct = type { i64, i64, ptr, ptr, i64 }
%struct.RBasic = type { i64, i64 }
%struct.chdir_data = type { i64, i64, i32, i8 }
%struct.RString = type { %struct.RBasic, i64, %union.anon.16 }
%union.anon.16 = type { %struct.anon.17 }
%struct.anon.17 = type { ptr, %union.anon.18 }
%union.anon.18 = type { i64 }
%struct.anon.19 = type { [1 x i8] }

@chdir_lock = internal global %struct.anon { i64 4, i64 4, i32 0, i32 0 }, align 8
@rb_eRuntimeError = external global i64, align 8
@.str.62 = private unnamed_addr constant [45 x i8] c"conflicting chdir during another chdir block\00", align 1
@.str.63 = private unnamed_addr constant [84 x i8] c"conflicting chdir during another chdir block\0A%li\0B:%d: note: previous chdir was here\00", align 1
@.str.64 = private unnamed_addr constant [5 x i8] c"HOME\00", align 1
@.str.65 = private unnamed_addr constant [7 x i8] c"LOGDIR\00", align 1
@rb_eArgError = external global i64, align 8
@.str.66 = private unnamed_addr constant [20 x i8] c"HOME/LOGDIR not set\00", align 1
@__func__.chdir_path = private unnamed_addr constant [11 x i8] c"chdir_path\00", align 1

; Function Attrs: inlinehint nounwind sspstrong willreturn memory(read) uwtable
define internal i64 @RB_FL_TEST_RAW(i64 noundef %0, i64 noundef %1) #19 {
  %3 = alloca i64, align 8
  %4 = alloca i64, align 8
  store i64 %0, ptr %3, align 8, !tbaa !7
  store i64 %1, ptr %4, align 8, !tbaa !7
  %5 = load i64, ptr %3, align 8, !tbaa !7
  %6 = inttoptr i64 %5 to ptr
  %7 = getelementptr inbounds nuw %struct.RBasic, ptr %6, i32 0, i32 0
  %8 = load i64, ptr %7, align 8, !tbaa !184
  %9 = load i64, ptr %4, align 8, !tbaa !7
  %10 = and i64 %8, %9
  ret i64 %10
}

; Function Attrs: inlinehint nounwind sspstrong willreturn memory(read) uwtable
define internal i64 @RSTRING_LEN(i64 noundef %0) #19 {
  %2 = alloca i64, align 8
  store i64 %0, ptr %2, align 8, !tbaa !7
  %3 = load i64, ptr %2, align 8, !tbaa !7
  %4 = inttoptr i64 %3 to ptr
  %5 = getelementptr inbounds nuw %struct.RString, ptr %4, i32 0, i32 1
  %6 = load i64, ptr %5, align 8, !tbaa !202
  ret i64 %6
}

; Function Attrs: inlinehint nounwind sspstrong willreturn memory(read) uwtable
define internal zeroext i1 @RB_FL_ANY_RAW(i64 noundef %0, i64 noundef %1) #19 {
  %3 = alloca i64, align 8
  %4 = alloca i64, align 8
  store i64 %0, ptr %3, align 8, !tbaa !7
  store i64 %1, ptr %4, align 8, !tbaa !7
  %5 = load i64, ptr %3, align 8, !tbaa !7
  %6 = load i64, ptr %4, align 8, !tbaa !7
  %7 = call i64 @RB_FL_TEST_RAW(i64 noundef %5, i64 noundef %6) #27
  %8 = icmp ne i64 %7, 0
  ret i1 %8
}

; Function Attrs: inlinehint nounwind sspstrong uwtable
define internal ptr @rb_imemo_tmpbuf_set_ptr(i64 noundef %0, ptr noundef %1) #2 {
  %3 = alloca i64, align 8
  %4 = alloca ptr, align 8
  store i64 %0, ptr %3, align 8, !tbaa !7
  store ptr %1, ptr %4, align 8, !tbaa !14
  %5 = load ptr, ptr %4, align 8, !tbaa !14
  %6 = load i64, ptr %3, align 8, !tbaa !7
  %7 = inttoptr i64 %6 to ptr
  %8 = getelementptr inbounds nuw %struct.rb_imemo_tmpbuf_struct, ptr %7, i32 0, i32 2
  store ptr %5, ptr %8, align 8, !tbaa !15
  ret ptr %5
}

; Function Attrs: inlinehint nounwind sspstrong uwtable
define internal i64 @rb_imemo_tmpbuf_auto_free_pointer() #2 {
  %1 = call i64 @rb_imemo_new(i32 noundef 8, i64 noundef 0, i64 noundef 40)
  ret i64 %1
}

; Function Attrs: inlinehint nounwind sspstrong willreturn memory(read, argmem: readwrite) uwtable
define internal void @rbimpl_rstring_getmem(ptr dead_on_unwind noalias writable sret(%struct.RString) align 8 %0, i64 noundef %1) #24 {
  %3 = alloca i64, align 8
  store i64 %1, ptr %3, align 8, !tbaa !7
  %4 = load i64, ptr %3, align 8, !tbaa !7
  %5 = call zeroext i1 @RB_FL_ANY_RAW(i64 noundef %4, i64 noundef 8192) #27
  br i1 %5, label %6, label %9

6:                                                ; preds = %2
  %7 = load i64, ptr %3, align 8, !tbaa !7
  %8 = inttoptr i64 %7 to ptr
  call void @llvm.memcpy.p0.p0.i64(ptr align 8 %0, ptr align 8 %8, i64 40, i1 false), !tbaa.struct !201
  br label %20

9:                                                ; preds = %2
  %10 = load i64, ptr %3, align 8, !tbaa !7
  %11 = call i64 @RSTRING_LEN(i64 noundef %10) #27
  %12 = getelementptr inbounds nuw %struct.RString, ptr %0, i32 0, i32 1
  store i64 %11, ptr %12, align 8, !tbaa !202
  %13 = load i64, ptr %3, align 8, !tbaa !7
  %14 = inttoptr i64 %13 to ptr
  %15 = getelementptr inbounds nuw %struct.RString, ptr %14, i32 0, i32 2
  %16 = getelementptr inbounds nuw %struct.anon.19, ptr %15, i32 0, i32 0
  %17 = getelementptr inbounds [1 x i8], ptr %16, i64 0, i64 0
  %18 = getelementptr inbounds nuw %struct.RString, ptr %0, i32 0, i32 2
  %19 = getelementptr inbounds nuw %struct.anon.17, ptr %18, i32 0, i32 0
  store ptr %17, ptr %19, align 8, !tbaa !26
  br label %20

20:                                               ; preds = %9, %6
  ret void
}

; Function Attrs: nounwind sspstrong uwtable
define hidden i64 @rb_dir_getwd_ospath() #0 {
  %1 = alloca ptr, align 8
  %2 = alloca i64, align 8
  %3 = alloca i64, align 8
  call void @llvm.lifetime.start.p0(i64 8, ptr %1) #26
  call void @llvm.lifetime.start.p0(i64 8, ptr %2) #26
  call void @llvm.lifetime.start.p0(i64 8, ptr %3) #26
  %4 = call i64 @rb_imemo_tmpbuf_auto_free_pointer()
  store i64 %4, ptr %3, align 8, !tbaa !7
  %5 = call noalias nonnull ptr @ruby_getcwd()
  store ptr %5, ptr %1, align 8, !tbaa !11
  %6 = load i64, ptr %3, align 8, !tbaa !7
  %7 = load ptr, ptr %1, align 8, !tbaa !11
  %8 = call ptr @rb_imemo_tmpbuf_set_ptr(i64 noundef %6, ptr noundef %7)
  %9 = load ptr, ptr %1, align 8, !tbaa !11
  %10 = call i64 @rb_str_new_cstr(ptr noundef %9)
  store i64 %10, ptr %2, align 8, !tbaa !7
  call void @rb_free_tmp_buffer(ptr noundef %3)
  %11 = load i64, ptr %2, align 8, !tbaa !7
  call void @llvm.lifetime.end.p0(i64 8, ptr %3) #26
  call void @llvm.lifetime.end.p0(i64 8, ptr %2) #26
  call void @llvm.lifetime.end.p0(i64 8, ptr %1) #26
  ret i64 %11
}

; Function Attrs: inlinehint nounwind sspstrong willreturn memory(none) uwtable
define internal zeroext i1 @RB_NIL_P(i64 noundef %0) #12 {
  %2 = alloca i64, align 8
  store i64 %0, ptr %2, align 8, !tbaa !7
  %3 = load i64, ptr %2, align 8, !tbaa !7
  %4 = icmp eq i64 %3, 4
  ret i1 %4
}

; Function Attrs: inlinehint nounwind sspstrong uwtable
define internal ptr @RSTRING_PTR(i64 noundef %0) #2 {
  %2 = alloca i64, align 8
  %3 = alloca ptr, align 8
  %4 = alloca %struct.RString, align 8
  store i64 %0, ptr %2, align 8, !tbaa !7
  call void @llvm.lifetime.start.p0(i64 8, ptr %3) #26
  %5 = load i64, ptr %2, align 8, !tbaa !7
  call void @rbimpl_rstring_getmem(ptr dead_on_unwind writable sret(%struct.RString) align 8 %4, i64 noundef %5) #35
  %6 = getelementptr inbounds nuw %struct.RString, ptr %4, i32 0, i32 2
  %7 = getelementptr inbounds nuw %struct.anon.17, ptr %6, i32 0, i32 0
  %8 = load ptr, ptr %7, align 8, !tbaa !26
  store ptr %8, ptr %3, align 8, !tbaa !11
  %9 = load ptr, ptr %3, align 8, !tbaa !11
  call void @llvm.lifetime.end.p0(i64 8, ptr %3) #26
  ret ptr %9
}

; Function Attrs: nounwind sspstrong uwtable
define dso_local i64 @rb_dir_getwd() #0 {
  %1 = alloca ptr, align 8
  %2 = alloca i32, align 4
  %3 = alloca i64, align 8
  call void @llvm.lifetime.start.p0(i64 8, ptr %1) #26
  %4 = call ptr @rb_filesystem_encoding()
  store ptr %4, ptr %1, align 8, !tbaa !19
  call void @llvm.lifetime.start.p0(i64 4, ptr %2) #26
  %5 = load ptr, ptr %1, align 8, !tbaa !19
  %6 = call i32 @rb_enc_to_index(ptr noundef %5) #27
  store i32 %6, ptr %2, align 4, !tbaa !21
  call void @llvm.lifetime.start.p0(i64 8, ptr %3) #26
  %7 = call i64 @rb_dir_getwd_ospath()
  store i64 %7, ptr %3, align 8, !tbaa !7
  %8 = load i32, ptr %2, align 4, !tbaa !21
  switch i32 %8, label %10 [
    i32 2, label %9
    i32 0, label %10
  ]

9:                                                ; preds = %0
  store i32 0, ptr %2, align 4, !tbaa !21
  br label %10

10:                                               ; preds = %0, %9, %0
  %11 = load i64, ptr %3, align 8, !tbaa !7
  %12 = load i32, ptr %2, align 4, !tbaa !21
  %13 = call i64 @rb_enc_associate_index(i64 noundef %11, i32 noundef %12)
  call void @llvm.lifetime.end.p0(i64 8, ptr %3) #26
  call void @llvm.lifetime.end.p0(i64 4, ptr %2) #26
  call void @llvm.lifetime.end.p0(i64 8, ptr %1) #26
  ret i64 %13
}

; Function Attrs: nounwind sspstrong uwtable
define internal i32 @chdir_alone_block_p() #0 {
  %1 = alloca i32, align 4
  call void @llvm.lifetime.start.p0(i64 4, ptr %1) #26
  %2 = call i32 @rb_block_given_p()
  store i32 %2, ptr %1, align 4, !tbaa !21
  %3 = load i32, ptr getelementptr inbounds nuw (%struct.anon, ptr @chdir_lock, i32 0, i32 3), align 4, !tbaa !186
  %4 = icmp sgt i32 %3, 0
  br i1 %4, label %5, label %23

5:                                                ; preds = %0
  %6 = call i64 @rb_thread_current()
  %7 = load i64, ptr @chdir_lock, align 8, !tbaa !188
  %8 = icmp ne i64 %6, %7
  br i1 %8, label %9, label %11

9:                                                ; preds = %5
  %10 = load i64, ptr @rb_eRuntimeError, align 8, !tbaa !7
  call void (i64, ptr, ...) @rb_raise(i64 noundef %10, ptr noundef @.str.62) #30
  unreachable

11:                                               ; preds = %5
  %12 = load i32, ptr %1, align 4, !tbaa !21
  %13 = icmp ne i32 %12, 0
  br i1 %13, label %22, label %14

14:                                               ; preds = %11
  %15 = load i64, ptr getelementptr inbounds nuw (%struct.anon, ptr @chdir_lock, i32 0, i32 1), align 8, !tbaa !189
  %16 = call zeroext i1 @RB_NIL_P(i64 noundef %15) #31
  br i1 %16, label %20, label %17

17:                                               ; preds = %14
  %18 = load i64, ptr getelementptr inbounds nuw (%struct.anon, ptr @chdir_lock, i32 0, i32 1), align 8, !tbaa !189
  %19 = load i32, ptr getelementptr inbounds nuw (%struct.anon, ptr @chdir_lock, i32 0, i32 2), align 8, !tbaa !190
  call void (ptr, ...) @rb_warn(ptr noundef @.str.63, i64 noundef %18, i32 noundef %19) #34
  br label %21

20:                                               ; preds = %14
  call void (ptr, ...) @rb_warn(ptr noundef @.str.62) #34
  br label %21

21:                                               ; preds = %20, %17
  br label %22

22:                                               ; preds = %21, %11
  br label %23

23:                                               ; preds = %22, %0
  %24 = load i32, ptr %1, align 4, !tbaa !21
  call void @llvm.lifetime.end.p0(i64 4, ptr %1) #26
  ret i32 %24
}

; Function Attrs: nounwind sspstrong uwtable
define internal i64 @chdir_path(i64 noundef %0, i1 noundef zeroext %1) #0 {
  %3 = alloca i64, align 8
  %4 = alloca i64, align 8
  %5 = alloca i8, align 1
  %6 = alloca %struct.chdir_data, align 8
  %7 = alloca ptr, align 8
  %8 = alloca i32, align 4
  %9 = alloca i32, align 4
  store i64 %0, ptr %4, align 8, !tbaa !7
  %10 = zext i1 %1 to i8
  store i8 %10, ptr %5, align 1, !tbaa !193
  %11 = call i32 @chdir_alone_block_p()
  %12 = icmp ne i32 %11, 0
  br i1 %12, label %13, label %27

13:                                               ; preds = %2
  call void @llvm.lifetime.start.p0(i64 24, ptr %6) #26
  %14 = call i64 @rb_dir_getwd()
  %15 = call i64 @rb_str_encode_ospath(i64 noundef %14)
  %16 = getelementptr inbounds nuw %struct.chdir_data, ptr %6, i32 0, i32 0
  store i64 %15, ptr %16, align 8, !tbaa !194
  %17 = load i64, ptr %4, align 8, !tbaa !7
  %18 = getelementptr inbounds nuw %struct.chdir_data, ptr %6, i32 0, i32 1
  store i64 %17, ptr %18, align 8, !tbaa !196
  %19 = getelementptr inbounds nuw %struct.chdir_data, ptr %6, i32 0, i32 2
  store i32 0, ptr %19, align 8, !tbaa !197
  %20 = load i8, ptr %5, align 1, !tbaa !193, !range !79, !noundef !80
  %21 = trunc i8 %20 to i1
  %22 = getelementptr inbounds nuw %struct.chdir_data, ptr %6, i32 0, i32 3
  %23 = zext i1 %21 to i8
  store i8 %23, ptr %22, align 4, !tbaa !198
  %24 = ptrtoint ptr %6 to i64
  %25 = ptrtoint ptr %6 to i64
  %26 = call i64 @rb_ensure(ptr noundef @chdir_yield, i64 noundef %24, ptr noundef @chdir_restore, i64 noundef %25)
  store i64 %26, ptr %3, align 8
  call void @llvm.lifetime.end.p0(i64 24, ptr %6) #26
  br label %46

27:                                               ; preds = %2
  call void @llvm.lifetime.start.p0(i64 8, ptr %7) #26
  %28 = load i64, ptr %4, align 8, !tbaa !7
  %29 = call ptr @RSTRING_PTR(i64 noundef %28)
  store ptr %29, ptr %7, align 8, !tbaa !11
  call void @llvm.lifetime.start.p0(i64 4, ptr %8) #26
  %30 = load ptr, ptr %7, align 8, !tbaa !11
  %31 = call ptr @rb_nogvl(ptr noundef @nogvl_chdir, ptr noundef %30, ptr noundef inttoptr (i64 -1 to ptr), ptr noundef null, i32 noundef 4)
  %32 = ptrtoint ptr %31 to i64
  %33 = trunc i64 %32 to i32
  store i32 %33, ptr %8, align 4, !tbaa !21
  %34 = load i32, ptr %8, align 4, !tbaa !21
  %35 = icmp slt i32 %34, 0
  br i1 %35, label %36, label %44

36:                                               ; preds = %27
  br label %37

37:                                               ; preds = %36
  call void @llvm.lifetime.start.p0(i64 4, ptr %9) #26
  %38 = call ptr @rb_errno_ptr()
  %39 = load i32, ptr %38, align 4, !tbaa !21
  store i32 %39, ptr %9, align 4, !tbaa !21
  %40 = load i32, ptr %9, align 4, !tbaa !21
  %41 = load i64, ptr %4, align 8, !tbaa !7
  call void @rb_syserr_fail_path_in(ptr noundef @__func__.chdir_path, i32 noundef %40, i64 noundef %41) #30
  unreachable

42:                                               ; No predecessors!
  br label %43

43:                                               ; preds = %42
  br label %44

44:                                               ; preds = %43, %27
  call void @llvm.lifetime.end.p0(i64 4, ptr %8) #26
  call void @llvm.lifetime.end.p0(i64 8, ptr %7) #26
  br label %45

45:                                               ; preds = %44
  store i64 1, ptr %3, align 8
  br label %46

46:                                               ; preds = %45, %13
  %47 = load i64, ptr %3, align 8
  ret i64 %47
}

; Function Attrs: inlinehint nounwind sspstrong uwtable
define internal i32 @rb_check_arity(i32 noundef %0, i32 noundef %1, i32 noundef %2) #2 {
  %4 = alloca i32, align 4
  %5 = alloca i32, align 4
  %6 = alloca i32, align 4
  store i32 %0, ptr %4, align 4, !tbaa !21
  store i32 %1, ptr %5, align 4, !tbaa !21
  store i32 %2, ptr %6, align 4, !tbaa !21
  %7 = load i32, ptr %4, align 4, !tbaa !21
  %8 = load i32, ptr %5, align 4, !tbaa !21
  %9 = icmp slt i32 %7, %8
  br i1 %9, label %17, label %10

10:                                               ; preds = %3
  %11 = load i32, ptr %6, align 4, !tbaa !21
  %12 = icmp ne i32 %11, -1
  br i1 %12, label %13, label %21

13:                                               ; preds = %10
  %14 = load i32, ptr %4, align 4, !tbaa !21
  %15 = load i32, ptr %6, align 4, !tbaa !21
  %16 = icmp sgt i32 %14, %15
  br i1 %16, label %17, label %21

17:                                               ; preds = %13, %3
  %18 = load i32, ptr %4, align 4, !tbaa !21
  %19 = load i32, ptr %5, align 4, !tbaa !21
  %20 = load i32, ptr %6, align 4, !tbaa !21
  call void @rb_error_arity(i32 noundef %18, i32 noundef %19, i32 noundef %20) #30
  unreachable

21:                                               ; preds = %13, %10
  %22 = load i32, ptr %4, align 4, !tbaa !21
  ret i32 %22
}

; Function Attrs: nounwind sspstrong uwtable
define internal i64 @dir_s_chdir(i32 noundef %0, ptr noundef %1, i64 noundef %2) #0 {
  %4 = alloca i32, align 4
  %5 = alloca ptr, align 8
  %6 = alloca i64, align 8
  %7 = alloca i64, align 8
  %8 = alloca ptr, align 8
  store i32 %0, ptr %4, align 4, !tbaa !21
  store ptr %1, ptr %5, align 8, !tbaa !48
  store i64 %2, ptr %6, align 8, !tbaa !7
  call void @llvm.lifetime.start.p0(i64 8, ptr %7) #26
  store i64 4, ptr %7, align 8, !tbaa !7
  %9 = load i32, ptr %4, align 4, !tbaa !21
  %10 = call i32 @rb_check_arity(i32 noundef %9, i32 noundef 0, i32 noundef 1)
  %11 = icmp eq i32 %10, 1
  br i1 %11, label %12, label %18

12:                                               ; preds = %3
  %13 = load ptr, ptr %5, align 8, !tbaa !48
  %14 = getelementptr i64, ptr %13, i64 0
  %15 = load i64, ptr %14, align 8, !tbaa !7
  %16 = call i64 @rb_get_path(i64 noundef %15)
  %17 = call i64 @rb_str_encode_ospath(i64 noundef %16)
  store i64 %17, ptr %7, align 8, !tbaa !7
  br label %32

18:                                               ; preds = %3
  call void @llvm.lifetime.start.p0(i64 8, ptr %8) #26
  %19 = call ptr @getenv(ptr noundef @.str.64) #26
  store ptr %19, ptr %8, align 8, !tbaa !11
  %20 = load ptr, ptr %8, align 8, !tbaa !11
  %21 = icmp ne ptr %20, null
  br i1 %21, label %29, label %22

22:                                               ; preds = %18
  %23 = call ptr @getenv(ptr noundef @.str.65) #26
  store ptr %23, ptr %8, align 8, !tbaa !11
  %24 = load ptr, ptr %8, align 8, !tbaa !11
  %25 = icmp ne ptr %24, null
  br i1 %25, label %28, label %26

26:                                               ; preds = %22
  %27 = load i64, ptr @rb_eArgError, align 8, !tbaa !7
  call void (i64, ptr, ...) @rb_raise(i64 noundef %27, ptr noundef @.str.66) #30
  unreachable

28:                                               ; preds = %22
  br label %29

29:                                               ; preds = %28, %18
  %30 = load ptr, ptr %8, align 8, !tbaa !11
  %31 = call i64 @rb_str_new_cstr(ptr noundef %30)
  store i64 %31, ptr %7, align 8, !tbaa !7
  call void @llvm.lifetime.end.p0(i64 8, ptr %8) #26
  br label %32

32:                                               ; preds = %29, %12
  %33 = load i64, ptr %7, align 8, !tbaa !7
  %34 = call i64 @chdir_path(i64 noundef %33, i1 noundef zeroext true)
  call void @llvm.lifetime.end.p0(i64 8, ptr %7) #26
  ret i64 %34
}