; Function Attrs: nounwind sspstrong uwtable
define internal i64 @dir_s_chdir(i32 noundef %0, ptr noundef readonly captures(none) %1, i64 %2) #0 {
  %4 = alloca i64, align 8
  %5 = alloca %struct.chdir_data, align 8
  %or.cond.i = icmp ugt i32 %0, 1
  br i1 %or.cond.i, label %6, label %rb_check_arity.exit

6:                                                ; preds = %3
  tail call void @rb_error_arity(i32 noundef %0, i32 noundef 0, i32 noundef 1) #26
  unreachable

rb_check_arity.exit:                              ; preds = %3
  %7 = icmp eq i32 %0, 1
  br i1 %7, label %8, label %12

8:                                                ; preds = %rb_check_arity.exit
  %9 = load i64, ptr %1, align 8, !tbaa !7
  %10 = tail call i64 @rb_get_path(i64 noundef %9) #22
  %11 = tail call i64 @rb_str_encode_ospath(i64 noundef %10) #22
  br label %20

12:                                               ; preds = %rb_check_arity.exit
  %13 = tail call ptr @getenv(ptr noundef nonnull @.str.64) #22
  %.not = icmp eq ptr %13, null
  br i1 %.not, label %14, label %18

14:                                               ; preds = %12
  %15 = tail call ptr @getenv(ptr noundef nonnull @.str.65) #22
  %.not8 = icmp eq ptr %15, null
  br i1 %.not8, label %16, label %18

16:                                               ; preds = %14
  %17 = load i64, ptr @rb_eArgError, align 8, !tbaa !7
  tail call void (i64, ptr, ...) @rb_raise(i64 noundef %17, ptr noundef nonnull @.str.66) #26
  unreachable

18:                                               ; preds = %14, %12
  %.0 = phi ptr [ %13, %12 ], [ %15, %14 ]
  %19 = tail call i64 @rb_str_new_cstr(ptr noundef nonnull %.0) #22
  br label %20

20:                                               ; preds = %18, %8
  %.05 = phi i64 [ %11, %8 ], [ %19, %18 ]
  %21 = tail call i32 @rb_block_given_p() #22
  %22 = load i32, ptr getelementptr inbounds nuw (i8, ptr @chdir_lock, i64 20), align 4, !tbaa !67
  %23 = icmp sgt i32 %22, 0
  br i1 %23, label %24, label %chdir_alone_block_p.exit.i

24:                                               ; preds = %20
  %25 = tail call i64 @rb_thread_current() #22
  %26 = load i64, ptr @chdir_lock, align 8, !tbaa !69
  %.not.i.i = icmp eq i64 %25, %26
  br i1 %.not.i.i, label %29, label %27

27:                                               ; preds = %24
  %28 = load i64, ptr @rb_eRuntimeError, align 8, !tbaa !7
  tail call void (i64, ptr, ...) @rb_raise(i64 noundef %28, ptr noundef nonnull @.str.62) #26
  unreachable

29:                                               ; preds = %24
  %.not2.i.i = icmp eq i32 %21, 0
  br i1 %.not2.i.i, label %30, label %chdir_alone_block_p.exit.thread9.i

30:                                               ; preds = %29
  %31 = load i64, ptr getelementptr inbounds nuw (i8, ptr @chdir_lock, i64 8), align 8, !tbaa !70
  %32 = icmp eq i64 %31, 4
  br i1 %32, label %35, label %33

33:                                               ; preds = %30
  %34 = load i32, ptr getelementptr inbounds nuw (i8, ptr @chdir_lock, i64 16), align 8, !tbaa !71
  tail call void (ptr, ...) @rb_warn(ptr noundef nonnull @.str.63, i64 noundef %31, i32 noundef %34) #28
  br label %chdir_alone_block_p.exit.thread.i

35:                                               ; preds = %30
  tail call void (ptr, ...) @rb_warn(ptr noundef nonnull @.str.62) #28
  br label %chdir_alone_block_p.exit.thread.i

chdir_alone_block_p.exit.i:                       ; preds = %20
  %.not.i = icmp eq i32 %21, 0
  br i1 %.not.i, label %chdir_alone_block_p.exit.thread.i, label %chdir_alone_block_p.exit.thread9.i

chdir_alone_block_p.exit.thread9.i:               ; preds = %chdir_alone_block_p.exit.i, %29
  call void @llvm.lifetime.start.p0(i64 24, ptr nonnull %5) #22
  %36 = tail call ptr @rb_filesystem_encoding() #22
  %37 = tail call i32 @rb_enc_to_index(ptr noundef %36) #23
  call void @llvm.lifetime.start.p0(i64 8, ptr nonnull %4) #22
  %38 = tail call i64 @rb_imemo_new(i32 noundef 8, i64 noundef 0, i64 noundef 40) #22
  store i64 %38, ptr %4, align 8, !tbaa !7
  %39 = tail call noalias nonnull ptr @ruby_getcwd() #22
  %40 = inttoptr i64 %38 to ptr
  %41 = getelementptr inbounds nuw i8, ptr %40, i64 16
  store ptr %39, ptr %41, align 8, !tbaa !11
  %42 = tail call i64 @rb_str_new_cstr(ptr noundef nonnull %39) #22
  call void @rb_free_tmp_buffer(ptr noundef nonnull %4) #22
  call void @llvm.lifetime.end.p0(i64 8, ptr nonnull %4) #22
  %cond.i.i = icmp eq i32 %37, 2
  %spec.store.select.i.i = select i1 %cond.i.i, i32 0, i32 %37
  %43 = call i64 @rb_enc_associate_index(i64 noundef %42, i32 noundef %spec.store.select.i.i) #22
  %44 = call i64 @rb_str_encode_ospath(i64 noundef %43) #22
  store i64 %44, ptr %5, align 8, !tbaa !76
  %45 = getelementptr inbounds nuw i8, ptr %5, i64 8
  store i64 %.05, ptr %45, align 8, !tbaa !79
  %46 = getelementptr inbounds nuw i8, ptr %5, i64 16
  store i32 0, ptr %46, align 8, !tbaa !80
  %47 = getelementptr inbounds nuw i8, ptr %5, i64 20
  store i8 1, ptr %47, align 4, !tbaa !81
  %48 = ptrtoint ptr %5 to i64
  %49 = call i64 @rb_ensure(ptr noundef nonnull @chdir_yield, i64 noundef %48, ptr noundef nonnull @chdir_restore, i64 noundef %48) #22
  call void @llvm.lifetime.end.p0(i64 24, ptr nonnull %5) #22
  br label %chdir_path.exit

chdir_alone_block_p.exit.thread.i:                ; preds = %chdir_alone_block_p.exit.i, %35, %33
  %50 = inttoptr i64 %.05 to ptr
  %51 = load i64, ptr %50, align 8, !tbaa !61, !noalias !82
  %52 = and i64 %51, 8192
  %.not.i.i.i = icmp eq i64 %52, 0
  %53 = getelementptr inbounds nuw i8, ptr %50, i64 24
  br i1 %.not.i.i.i, label %RSTRING_PTR.exit.i, label %54

54:                                               ; preds = %chdir_alone_block_p.exit.thread.i
  %.sroa.2.0.copyload.i.i = load ptr, ptr %53, align 8
  br label %RSTRING_PTR.exit.i

RSTRING_PTR.exit.i:                               ; preds = %54, %chdir_alone_block_p.exit.thread.i
  %.sroa.2.0.i.i = phi ptr [ %.sroa.2.0.copyload.i.i, %54 ], [ %53, %chdir_alone_block_p.exit.thread.i ]
  %55 = tail call ptr @rb_nogvl(ptr noundef nonnull @nogvl_chdir, ptr noundef %.sroa.2.0.i.i, ptr noundef nonnull inttoptr (i64 -1 to ptr), ptr noundef null, i32 noundef 4) #22
  %56 = ptrtoint ptr %55 to i64
  %57 = and i64 %56, 2147483648
  %.not7.i = icmp eq i64 %57, 0
  br i1 %.not7.i, label %chdir_path.exit, label %58

58:                                               ; preds = %RSTRING_PTR.exit.i
  %59 = tail call ptr @rb_errno_ptr() #22
  %60 = load i32, ptr %59, align 4, !tbaa !58
  tail call void @rb_syserr_fail_path_in(ptr noundef nonnull @__func__.chdir_path, i32 noundef %60, i64 noundef %.05) #26
  unreachable

chdir_path.exit:                                  ; preds = %chdir_alone_block_p.exit.thread9.i, %RSTRING_PTR.exit.i
  %.0.i = phi i64 [ %49, %chdir_alone_block_p.exit.thread9.i ], [ 1, %RSTRING_PTR.exit.i ]
  ret i64 %.0.i
}